; Function Attrs: mustprogress nofree nounwind willreturn memory(readwrite, inaccessiblemem: write) uwtable
define internal { double, double } @_ZL15putp5_s_inverse5PJ_XYP8PJconsts(double %0, double %1, ptr noundef readonly captures(none) %2) #3 {
  %4 = getelementptr inbounds nuw i8, ptr %2, i64 88
  %5 = load ptr, ptr %4, align 8, !tbaa !3
  %6 = fdiv double %1, 1.013460e+00
  %7 = load double, ptr %5, align 8, !tbaa !36
  %8 = getelementptr inbounds nuw i8, ptr %5, i64 8
  %9 = load double, ptr %8, align 8, !tbaa !38
  %10 = fmul double %6, 0x3FF37423889B4495
  %11 = tail call double @llvm.fmuladd.f64(double %10, double %6, double 1.000000e+00)
  %12 = tail call double @sqrt(double noundef %11) #7, !tbaa !47
  %13 = fneg double %9
  %14 = tail call double @llvm.fmuladd.f64(double %13, double %12, double %7)
  %15 = fmul double %14, 1.013460e+00
  %16 = fdiv double %0, %15
  %.fca.0.insert = insertvalue { double, double } poison, double %16, 0
  %.fca.1.insert = insertvalue { double, double } %.fca.0.insert, double %6, 1
  ret { double, double } %.fca.1.insert
}